; Function Attrs: mustprogress uwtable
define void @_Z9close_enxP9ener_file(ptr noundef readonly %0) local_unnamed_addr #1 personality ptr @__gxx_personality_v0 {
  %2 = alloca %"class.std::__cxx11::basic_string", align 8
  %3 = alloca %"class.std::allocator", align 1
  %4 = alloca %"class.std::filesystem::__cxx11::path", align 8
  %5 = icmp eq ptr %0, null
  br i1 %5, label %22, label %6

6:                                                ; preds = %1
  %7 = getelementptr inbounds i8, ptr %0, i64 24
  %8 = load ptr, ptr %7, align 8
  %9 = tail call noundef i32 @_Z13gmx_fio_closeP8t_fileio(ptr noundef %8)
  %.not = icmp eq i32 %9, 0
  br i1 %.not, label %22, label %10

10:                                               ; preds = %6
  call void @_ZNSaIcEC1Ev(ptr noundef nonnull align 1 dereferenceable(1) %3) #17
  invoke void @_ZNSt7__cxx1112basic_stringIcSt11char_traitsIcESaIcEEC2IS3_EEPKcRKS3_(ptr noundef nonnull align 8 dereferenceable(32) %2, ptr noundef nonnull @.str.33, ptr noundef nonnull align 1 dereferenceable(1) %3)
          to label %11 unwind label %14

11:                                               ; preds = %10
  invoke void @_ZNSt10filesystem7__cxx114pathC2IA122_cS1_EERKT_NS1_6formatE(ptr noundef nonnull align 8 dereferenceable(40) %4, ptr noundef nonnull align 1 dereferenceable(122) @.str.9, i8 noundef zeroext 2)
          to label %12 unwind label %16

12:                                               ; preds = %11
  invoke void @_Z18gmx_error_functionPKcRKNSt7__cxx1112basic_stringIcSt11char_traitsIcESaIcEEERKNSt10filesystem7__cxx114pathEi(ptr noundef nonnull @.str.19, ptr noundef nonnull align 8 dereferenceable(32) %2, ptr noundef nonnull align 8 dereferenceable(40) %4, i32 noundef 768) #18
          to label %13 unwind label %18

13:                                               ; preds = %12
  unreachable

14:                                               ; preds = %10
  %15 = landingpad { ptr, i32 }
          cleanup
  br label %21

16:                                               ; preds = %11
  %17 = landingpad { ptr, i32 }
          cleanup
  br label %20

18:                                               ; preds = %12
  %19 = landingpad { ptr, i32 }
          cleanup
  call void @_ZNSt10filesystem7__cxx114pathD2Ev(ptr noundef nonnull align 8 dereferenceable(40) %4) #17
  br label %20

20:                                               ; preds = %18, %16
  %.pn = phi { ptr, i32 } [ %19, %18 ], [ %17, %16 ]
  call void @_ZNSt7__cxx1112basic_stringIcSt11char_traitsIcESaIcEED1Ev(ptr noundef nonnull align 8 dereferenceable(32) %2) #17
  br label %21

21:                                               ; preds = %20, %14
  %.pn.pn = phi { ptr, i32 } [ %.pn, %20 ], [ %15, %14 ]
  call void @_ZNSaIcED1Ev(ptr noundef nonnull align 1 dereferenceable(1) %3) #17
  resume { ptr, i32 } %.pn.pn

22:                                               ; preds = %1, %6
  ret void
}